target datalayout = "e-m:e-p270:32:32-p271:32:32-p272:64:64-i64:64-i128:128-f80:128-n8:16:32:64-S128"
target triple = "x86_64-pc-linux-gnu"

%struct.cl_engine = type { i32, i32, i32, [2 x i32], i32, i32, i32, ptr, i32, i64, i32, i32, i64, i64, i32, i32, i32, i32, ptr, ptr, ptr, ptr, ptr, ptr, ptr, ptr, ptr, ptr, ptr, ptr, ptr, ptr, ptr, ptr, ptr, ptr, ptr, i64, ptr, %struct.crtmgr, ptr, ptr, ptr, ptr, ptr, ptr, ptr, ptr, ptr, ptr, ptr, ptr, ptr, ptr, ptr, ptr, ptr, %struct.cli_all_bc, [7 x ptr], [7 x i32], i32, i32, i32, i32, i64, i64, i64, i64, i64, ptr, ptr, ptr, ptr, ptr, ptr, ptr, ptr, ptr, i32, i32, i32, i64, i64, i64, ptr }
%struct.crtmgr = type { ptr, i32 }
%struct.cli_all_bc = type { ptr, i32, ptr, %struct.cli_environment, i32 }
%struct.cli_environment = type { i32, i32, i32, i32, i32, i32, i32, [65 x i8], [65 x i8], [65 x i8], [65 x i8], [65 x i8], [65 x i8], [65 x i8], i8, i8, i8, i8, i8, i8, i8, i8, i8 }
%struct.CACHE = type { %struct.cache_set, i32, i32, %union.pthread_mutex_t }
%struct.cache_set = type { ptr, ptr, ptr, ptr }
%union.pthread_mutex_t = type { %struct.__pthread_mutex_s }
%struct.__pthread_mutex_s = type { i32, i32, i32, i32, i32, i16, i16, %struct.__pthread_internal_list }
%struct.__pthread_internal_list = type { ptr, ptr }
%struct.node = type { [2 x i64], ptr, ptr, ptr, ptr, ptr, i32, i32 }

@.str = private unnamed_addr constant [37 x i8] c"clean_cache_init: mpool malloc fail\0A\00", align 1
@.str.1 = private unnamed_addr constant [37 x i8] c"clean_cache_init: Caching disabled.\0A\00", align 1
@.str.2 = private unnamed_addr constant [99 x i8] c"clean_cache_init: Requested cache size: %d. Actual cache size: %d. Trees: %d. Nodes per tree: %d.\0A\00", align 1
@.str.3 = private unnamed_addr constant [35 x i8] c"clean_cache_init: mutex init fail\0A\00", align 1

; Function Attrs: nounwind uwtable
define internal i32 @cacheset_init(ptr noundef %0, ptr noundef %1, i32 noundef %2) #0 {
  %4 = alloca i32, align 4
  %5 = alloca ptr, align 8
  %6 = alloca ptr, align 8
  %7 = alloca i32, align 4
  %8 = alloca i32, align 4
  store ptr %0, ptr %5, align 8
  store ptr %1, ptr %6, align 8
  store i32 %2, ptr %7, align 4
  %9 = load ptr, ptr %6, align 8
  %10 = load i32, ptr %7, align 4
  %11 = zext i32 %10 to i64
  %12 = call ptr @mpool_calloc(ptr noundef %9, i64 noundef %11, i64 noundef 64)
  %13 = load ptr, ptr %5, align 8
  %14 = getelementptr inbounds %struct.cache_set, ptr %13, i32 0, i32 0
  store ptr %12, ptr %14, align 8
  %15 = load ptr, ptr %5, align 8
  %16 = getelementptr inbounds %struct.cache_set, ptr %15, i32 0, i32 1
  store ptr null, ptr %16, align 8
  %17 = load ptr, ptr %5, align 8
  %18 = getelementptr inbounds %struct.cache_set, ptr %17, i32 0, i32 0
  %19 = load ptr, ptr %18, align 8
  %20 = icmp ne ptr %19, null
  br i1 %20, label %22, label %21

21:                                               ; preds = %3
  store i32 1, ptr %4, align 4
  br label %74

22:                                               ; preds = %3
  store i32 1, ptr %8, align 4
  br label %23

23:                                               ; preds = %56, %22
  %24 = load i32, ptr %8, align 4
  %25 = load i32, ptr %7, align 4
  %26 = icmp ult i32 %24, %25
  br i1 %26, label %27, label %59

27:                                               ; preds = %23
  %28 = load ptr, ptr %5, align 8
  %29 = getelementptr inbounds %struct.cache_set, ptr %28, i32 0, i32 0
  %30 = load ptr, ptr %29, align 8
  %31 = load i32, ptr %8, align 4
  %32 = zext i32 %31 to i64
  %33 = getelementptr inbounds %struct.node, ptr %30, i64 %32
  %34 = load ptr, ptr %5, align 8
  %35 = getelementptr inbounds %struct.cache_set, ptr %34, i32 0, i32 0
  %36 = load ptr, ptr %35, align 8
  %37 = load i32, ptr %8, align 4
  %38 = sub i32 %37, 1
  %39 = zext i32 %38 to i64
  %40 = getelementptr inbounds %struct.node, ptr %36, i64 %39
  %41 = getelementptr inbounds %struct.node, ptr %40, i32 0, i32 4
  store ptr %33, ptr %41, align 8
  %42 = load ptr, ptr %5, align 8
  %43 = getelementptr inbounds %struct.cache_set, ptr %42, i32 0, i32 0
  %44 = load ptr, ptr %43, align 8
  %45 = load i32, ptr %8, align 4
  %46 = sub i32 %45, 1
  %47 = zext i32 %46 to i64
  %48 = getelementptr inbounds %struct.node, ptr %44, i64 %47
  %49 = load ptr, ptr %5, align 8
  %50 = getelementptr inbounds %struct.cache_set, ptr %49, i32 0, i32 0
  %51 = load ptr, ptr %50, align 8
  %52 = load i32, ptr %8, align 4
  %53 = zext i32 %52 to i64
  %54 = getelementptr inbounds %struct.node, ptr %51, i64 %53
  %55 = getelementptr inbounds %struct.node, ptr %54, i32 0, i32 5
  store ptr %48, ptr %55, align 8
  br label %56

56:                                               ; preds = %27
  %57 = load i32, ptr %8, align 4
  %58 = add i32 %57, 1
  store i32 %58, ptr %8, align 4
  br label %23

59:                                               ; preds = %23
  %60 = load ptr, ptr %5, align 8
  %61 = getelementptr inbounds %struct.cache_set, ptr %60, i32 0, i32 0
  %62 = load ptr, ptr %61, align 8
  %63 = load ptr, ptr %5, align 8
  %64 = getelementptr inbounds %struct.cache_set, ptr %63, i32 0, i32 2
  store ptr %62, ptr %64, align 8
  %65 = load ptr, ptr %5, align 8
  %66 = getelementptr inbounds %struct.cache_set, ptr %65, i32 0, i32 0
  %67 = load ptr, ptr %66, align 8
  %68 = load i32, ptr %7, align 4
  %69 = sub i32 %68, 1
  %70 = zext i32 %69 to i64
  %71 = getelementptr inbounds %struct.node, ptr %67, i64 %70
  %72 = load ptr, ptr %5, align 8
  %73 = getelementptr inbounds %struct.cache_set, ptr %72, i32 0, i32 3
  store ptr %71, ptr %73, align 8
  store i32 0, ptr %4, align 4
  br label %74

74:                                               ; preds = %59, %21
  %75 = load i32, ptr %4, align 4
  ret i32 %75
}

; Function Attrs: nounwind uwtable
define internal void @cacheset_destroy(ptr noundef %0, ptr noundef %1) #0 {
  %3 = alloca ptr, align 8
  %4 = alloca ptr, align 8
  store ptr %0, ptr %3, align 8
  store ptr %1, ptr %4, align 8
  %5 = load ptr, ptr %4, align 8
  %6 = load ptr, ptr %3, align 8
  %7 = getelementptr inbounds %struct.cache_set, ptr %6, i32 0, i32 0
  %8 = load ptr, ptr %7, align 8
  call void @mpool_free(ptr noundef %5, ptr noundef %8)
  %9 = load ptr, ptr %3, align 8
  %10 = getelementptr inbounds %struct.cache_set, ptr %9, i32 0, i32 0
  store ptr null, ptr %10, align 8
  ret void
}

; Function Attrs: nounwind uwtable
define i32 @clean_cache_init(ptr noundef %0) #0 {
  %2 = alloca i32, align 4
  %3 = alloca ptr, align 8
  %4 = alloca ptr, align 8
  %5 = alloca i32, align 4
  %6 = alloca i32, align 4
  %7 = alloca i32, align 4
  %8 = alloca i32, align 4
  store ptr %0, ptr %3, align 8
  %9 = load ptr, ptr %3, align 8
  %10 = icmp ne ptr %9, null
  br i1 %10, label %12, label %11

11:                                               ; preds = %1
  call void (ptr, ...) @cli_errmsg(ptr noundef @.str)
  store i32 1, ptr %2, align 4
  br label %166

12:                                               ; preds = %1
  %13 = load ptr, ptr %3, align 8
  %14 = getelementptr inbounds %struct.cl_engine, ptr %13, i32 0, i32 9
  %15 = load i64, ptr %14, align 8
  %16 = and i64 %15, 1
  %17 = icmp ne i64 %16, 0
  br i1 %17, label %18, label %19

18:                                               ; preds = %12
  call void (ptr, ...) @cli_dbgmsg(ptr noundef @.str.1)
  store i32 0, ptr %2, align 4
  br label %166

19:                                               ; preds = %12
  %20 = load ptr, ptr %3, align 8
  %21 = getelementptr inbounds %struct.cl_engine, ptr %20, i32 0, i32 10
  %22 = load i32, ptr %21, align 8
  %23 = uitofp i32 %22 to double
  %24 = call double @sqrt(double noundef %23) #6
  %25 = call double @llvm.ceil.f64(double %24)
  %26 = fptoui double %25 to i32
  store i32 %26, ptr %7, align 4
  %27 = load ptr, ptr %3, align 8
  %28 = getelementptr inbounds %struct.cl_engine, ptr %27, i32 0, i32 10
  %29 = load i32, ptr %28, align 8
  %30 = uitofp i32 %29 to double
  %31 = call double @sqrt(double noundef %30) #6
  %32 = call double @llvm.ceil.f64(double %31)
  %33 = fptoui double %32 to i32
  store i32 %33, ptr %8, align 4
  %34 = load ptr, ptr %3, align 8
  %35 = getelementptr inbounds %struct.cl_engine, ptr %34, i32 0, i32 10
  %36 = load i32, ptr %35, align 8
  %37 = load i32, ptr %7, align 4
  %38 = load i32, ptr %8, align 4
  %39 = mul i32 %37, %38
  %40 = load i32, ptr %7, align 4
  %41 = load i32, ptr %8, align 4
  call void (ptr, ...) @cli_dbgmsg(ptr noundef @.str.2, i32 noundef %36, i32 noundef %39, i32 noundef %40, i32 noundef %41)
  %42 = load ptr, ptr %3, align 8
  %43 = getelementptr inbounds %struct.cl_engine, ptr %42, i32 0, i32 38
  %44 = load ptr, ptr %43, align 8
  %45 = load i32, ptr %7, align 4
  %46 = zext i32 %45 to i64
  %47 = mul i64 80, %46
  %48 = call ptr @mpool_malloc(ptr noundef %44, i64 noundef %47)
  store ptr %48, ptr %4, align 8
  %49 = icmp ne ptr %48, null
  br i1 %49, label %51, label %50

50:                                               ; preds = %19
  call void (ptr, ...) @cli_errmsg(ptr noundef @.str)
  store i32 1, ptr %2, align 4
  br label %166

51:                                               ; preds = %19
  %52 = load i32, ptr %7, align 4
  %53 = load ptr, ptr %4, align 8
  %54 = getelementptr inbounds %struct.CACHE, ptr %53, i32 0, i32 1
  store i32 %52, ptr %54, align 8
  %55 = load i32, ptr %8, align 4
  %56 = load ptr, ptr %4, align 8
  %57 = getelementptr inbounds %struct.CACHE, ptr %56, i32 0, i32 2
  store i32 %55, ptr %57, align 4
  store i32 0, ptr %5, align 4
  br label %58

58:                                               ; preds = %159, %51
  %59 = load i32, ptr %5, align 4
  %60 = load i32, ptr %7, align 4
  %61 = icmp ult i32 %59, %60
  br i1 %61, label %62, label %162

62:                                               ; preds = %58
  %63 = load ptr, ptr %4, align 8
  %64 = load i32, ptr %5, align 4
  %65 = zext i32 %64 to i64
  %66 = getelementptr inbounds %struct.CACHE, ptr %63, i64 %65
  %67 = getelementptr inbounds %struct.CACHE, ptr %66, i32 0, i32 3
  %68 = call i32 @pthread_mutex_init(ptr noundef %67, ptr noundef null) #6
  %69 = icmp ne i32 %68, 0
  br i1 %69, label %70, label %107

70:                                               ; preds = %62
  call void (ptr, ...) @cli_errmsg(ptr noundef @.str.3)
  store i32 0, ptr %6, align 4
  br label %71

71:                                               ; preds = %84, %70
  %72 = load i32, ptr %6, align 4
  %73 = load i32, ptr %5, align 4
  %74 = icmp ult i32 %72, %73
  br i1 %74, label %75, label %87

75:                                               ; preds = %71
  %76 = load ptr, ptr %4, align 8
  %77 = load i32, ptr %6, align 4
  %78 = zext i32 %77 to i64
  %79 = getelementptr inbounds %struct.CACHE, ptr %76, i64 %78
  %80 = getelementptr inbounds %struct.CACHE, ptr %79, i32 0, i32 0
  %81 = load ptr, ptr %3, align 8
  %82 = getelementptr inbounds %struct.cl_engine, ptr %81, i32 0, i32 38
  %83 = load ptr, ptr %82, align 8
  call void @cacheset_destroy(ptr noundef %80, ptr noundef %83)
  br label %84

84:                                               ; preds = %75
  %85 = load i32, ptr %6, align 4
  %86 = add i32 %85, 1
  store i32 %86, ptr %6, align 4
  br label %71

87:                                               ; preds = %71
  store i32 0, ptr %6, align 4
  br label %88

88:                                               ; preds = %99, %87
  %89 = load i32, ptr %6, align 4
  %90 = load i32, ptr %5, align 4
  %91 = icmp ult i32 %89, %90
  br i1 %91, label %92, label %102

92:                                               ; preds = %88
  %93 = load ptr, ptr %4, align 8
  %94 = load i32, ptr %6, align 4
  %95 = zext i32 %94 to i64
  %96 = getelementptr inbounds %struct.CACHE, ptr %93, i64 %95
  %97 = getelementptr inbounds %struct.CACHE, ptr %96, i32 0, i32 3
  %98 = call i32 @pthread_mutex_destroy(ptr noundef %97) #6
  br label %99

99:                                               ; preds = %92
  %100 = load i32, ptr %6, align 4
  %101 = add i32 %100, 1
  store i32 %101, ptr %6, align 4
  br label %88

102:                                              ; preds = %88
  %103 = load ptr, ptr %3, align 8
  %104 = getelementptr inbounds %struct.cl_engine, ptr %103, i32 0, i32 38
  %105 = load ptr, ptr %104, align 8
  %106 = load ptr, ptr %4, align 8
  call void @mpool_free(ptr noundef %105, ptr noundef %106)
  store i32 1, ptr %2, align 4
  br label %166

107:                                              ; preds = %62
  %108 = load ptr, ptr %4, align 8
  %109 = load i32, ptr %5, align 4
  %110 = zext i32 %109 to i64
  %111 = getelementptr inbounds %struct.CACHE, ptr %108, i64 %110
  %112 = getelementptr inbounds %struct.CACHE, ptr %111, i32 0, i32 0
  %113 = load ptr, ptr %3, align 8
  %114 = getelementptr inbounds %struct.cl_engine, ptr %113, i32 0, i32 38
  %115 = load ptr, ptr %114, align 8
  %116 = load ptr, ptr %4, align 8
  %117 = getelementptr inbounds %struct.CACHE, ptr %116, i32 0, i32 2
  %118 = load i32, ptr %117, align 4
  %119 = call i32 @cacheset_init(ptr noundef %112, ptr noundef %115, i32 noundef %118)
  %120 = icmp ne i32 %119, 0
  br i1 %120, label %121, label %158

121:                                              ; preds = %107
  store i32 0, ptr %6, align 4
  br label %122

122:                                              ; preds = %135, %121
  %123 = load i32, ptr %6, align 4
  %124 = load i32, ptr %5, align 4
  %125 = icmp ult i32 %123, %124
  br i1 %125, label %126, label %138

126:                                              ; preds = %122
  %127 = load ptr, ptr %4, align 8
  %128 = load i32, ptr %6, align 4
  %129 = zext i32 %128 to i64
  %130 = getelementptr inbounds %struct.CACHE, ptr %127, i64 %129
  %131 = getelementptr inbounds %struct.CACHE, ptr %130, i32 0, i32 0
  %132 = load ptr, ptr %3, align 8
  %133 = getelementptr inbounds %struct.cl_engine, ptr %132, i32 0, i32 38
  %134 = load ptr, ptr %133, align 8
  call void @cacheset_destroy(ptr noundef %131, ptr noundef %134)
  br label %135

135:                                              ; preds = %126
  %136 = load i32, ptr %6, align 4
  %137 = add i32 %136, 1
  store i32 %137, ptr %6, align 4
  br label %122

138:                                              ; preds = %122
  store i32 0, ptr %6, align 4
  br label %139

139:                                              ; preds = %150, %138
  %140 = load i32, ptr %6, align 4
  %141 = load i32, ptr %5, align 4
  %142 = icmp ule i32 %140, %141
  br i1 %142, label %143, label %153

143:                                              ; preds = %139
  %144 = load ptr, ptr %4, align 8
  %145 = load i32, ptr %6, align 4
  %146 = zext i32 %145 to i64
  %147 = getelementptr inbounds %struct.CACHE, ptr %144, i64 %146
  %148 = getelementptr inbounds %struct.CACHE, ptr %147, i32 0, i32 3
  %149 = call i32 @pthread_mutex_destroy(ptr noundef %148) #6
  br label %150

150:                                              ; preds = %143
  %151 = load i32, ptr %6, align 4
  %152 = add i32 %151, 1
  store i32 %152, ptr %6, align 4
  br label %139

153:                                              ; preds = %139
  %154 = load ptr, ptr %3, align 8
  %155 = getelementptr inbounds %struct.cl_engine, ptr %154, i32 0, i32 38
  %156 = load ptr, ptr %155, align 8
  %157 = load ptr, ptr %4, align 8
  call void @mpool_free(ptr noundef %156, ptr noundef %157)
  store i32 1, ptr %2, align 4
  br label %166

158:                                              ; preds = %107
  br label %159

159:                                              ; preds = %158
  %160 = load i32, ptr %5, align 4
  %161 = add i32 %160, 1
  store i32 %161, ptr %5, align 4
  br label %58

162:                                              ; preds = %58
  %163 = load ptr, ptr %4, align 8
  %164 = load ptr, ptr %3, align 8
  %165 = getelementptr inbounds %struct.cl_engine, ptr %164, i32 0, i32 35
  store ptr %163, ptr %165, align 8
  store i32 0, ptr %2, align 4
  br label %166

166:                                              ; preds = %162, %153, %102, %50, %18, %11
  %167 = load i32, ptr %2, align 4
  ret i32 %167
}